; Function Attrs: nounwind uwtable
define range(i32 -1, 10) i32 @evtag_unmarshal_int64(ptr noundef %0, i32 noundef %1, ptr noundef writeonly captures(none) %2) local_unnamed_addr #1 {
  %4 = alloca i32, align 4
  call void @llvm.lifetime.start.p0(i64 4, ptr nonnull %4) #7
  %5 = tail call i64 @evbuffer_get_length(ptr noundef %0) #7
  %6 = tail call i64 @llvm.umin.i64(i64 %5, i64 5)
  %7 = tail call ptr @evbuffer_pullup(ptr noundef %0, i64 noundef %6) #7
  %.not.i = icmp eq ptr %7, null
  br i1 %.not.i, label %decode_tag_internal.exit.thread, label %.preheader.i

.preheader.i:                                     ; preds = %3, %15
  %.034.i = phi i32 [ %19, %15 ], [ 0, %3 ]
  %.033.i = phi ptr [ %10, %15 ], [ %7, %3 ]
  %.032.i = phi i64 [ %8, %15 ], [ 0, %3 ]
  %.030.i = phi i32 [ %20, %15 ], [ 0, %3 ]
  %8 = add i64 %.032.i, 1
  %exitcond.not.i = icmp eq i64 %.032.i, %5
  br i1 %exitcond.not.i, label %decode_tag_internal.exit.thread, label %9

9:                                                ; preds = %.preheader.i
  %10 = getelementptr inbounds nuw i8, ptr %.033.i, i64 1
  %11 = load i8, ptr %.033.i, align 1
  %12 = icmp samesign ugt i32 %.030.i, 27
  br i1 %12, label %13, label %15

13:                                               ; preds = %9
  %.not39.i = icmp eq i32 %.030.i, 28
  %14 = and i8 %11, 112
  %.not40.i = icmp eq i8 %14, 0
  %or.cond.i = select i1 %.not39.i, i1 %.not40.i, i1 false
  br i1 %or.cond.i, label %15, label %decode_tag_internal.exit.thread

15:                                               ; preds = %13, %9
  %16 = and i8 %11, 127
  %17 = zext nneg i8 %16 to i32
  %18 = shl i32 %17, %.030.i
  %19 = or i32 %18, %.034.i
  %20 = add nuw nsw i32 %.030.i, 7
  %.not41.i = icmp sgt i8 %11, -1
  br i1 %.not41.i, label %.thread49.i, label %.preheader.i

.thread49.i:                                      ; preds = %15
  %.not54.le.i = icmp ult i64 %.032.i, %5
  br i1 %.not54.le.i, label %decode_tag_internal.exit, label %decode_tag_internal.exit.thread

decode_tag_internal.exit:                         ; preds = %.thread49.i
  %21 = tail call i32 @evbuffer_drain(ptr noundef %0, i64 noundef %8) #7
  %.not = icmp eq i32 %1, %19
  br i1 %.not, label %22, label %decode_tag_internal.exit.thread

22:                                               ; preds = %decode_tag_internal.exit
  %23 = call i32 @evtag_decode_int(ptr noundef nonnull %4, ptr noundef %0)
  %24 = icmp eq i32 %23, -1
  br i1 %24, label %decode_tag_internal.exit.thread, label %25

25:                                               ; preds = %22
  %26 = tail call i64 @evbuffer_get_length(ptr noundef %0) #7
  %27 = load i32, ptr %4, align 4
  %28 = zext i32 %27 to i64
  %29 = icmp ult i64 %26, %28
  br i1 %29, label %decode_tag_internal.exit.thread, label %30

30:                                               ; preds = %25
  %31 = tail call i64 @evbuffer_get_length(ptr noundef %0) #7
  %32 = icmp slt i64 %31, 1
  br i1 %32, label %decode_int64_internal.exit, label %33

33:                                               ; preds = %30
  %34 = tail call ptr @evbuffer_pullup(ptr noundef %0, i64 noundef 1) #7
  %.not.i13 = icmp eq ptr %34, null
  br i1 %.not.i13, label %decode_int64_internal.exit, label %35

35:                                               ; preds = %33
  %36 = load i8, ptr %34, align 1
  %37 = lshr i8 %36, 4
  %narrow.i = add nuw nsw i8 %37, 1
  %38 = zext nneg i8 %narrow.i to i32
  %39 = lshr i32 %38, 1
  %40 = add nuw nsw i32 %39, 1
  %41 = zext nneg i32 %40 to i64
  %42 = icmp samesign ult i64 %31, %41
  br i1 %42, label %decode_int64_internal.exit, label %43

43:                                               ; preds = %35
  %44 = tail call ptr @evbuffer_pullup(ptr noundef %0, i64 noundef %41) #7
  %.not36.i = icmp eq ptr %44, null
  br i1 %.not36.i, label %decode_int64_internal.exit, label %.preheader.i14

.preheader.i14:                                   ; preds = %43, %.preheader.i14
  %.039.i = phi i32 [ %53, %.preheader.i14 ], [ %38, %43 ]
  %.03038.i = phi i64 [ %.1.i, %.preheader.i14 ], [ 0, %43 ]
  %45 = shl i64 %.03038.i, 4
  %46 = and i32 %.039.i, 1
  %.not37.i = icmp eq i32 %46, 0
  %47 = lshr i32 %.039.i, 1
  %48 = zext nneg i32 %47 to i64
  %49 = getelementptr inbounds nuw i8, ptr %44, i64 %48
  %50 = load i8, ptr %49, align 1
  %51 = and i8 %50, 15
  %52 = lshr i8 %50, 4
  %.pn.in.i = select i1 %.not37.i, i8 %52, i8 %51
  %.pn.i = zext nneg i8 %.pn.in.i to i64
  %.1.i = or disjoint i64 %45, %.pn.i
  %53 = add nsw i32 %.039.i, -1
  %54 = icmp samesign ugt i32 %.039.i, 1
  br i1 %54, label %.preheader.i14, label %55, !llvm.loop !8

55:                                               ; preds = %.preheader.i14
  store i64 %.1.i, ptr %2, align 8
  br label %decode_int64_internal.exit

decode_int64_internal.exit:                       ; preds = %30, %33, %35, %43, %55
  %.031.i = phi i32 [ %40, %55 ], [ -1, %30 ], [ -1, %33 ], [ -1, %35 ], [ -1, %43 ]
  %56 = tail call i32 @evbuffer_drain(ptr noundef %0, i64 noundef %28) #7
  %57 = icmp slt i32 %.031.i, 0
  %58 = icmp ugt i32 %.031.i, %27
  %or.cond = or i1 %57, %58
  %spec.select = select i1 %or.cond, i32 -1, i32 %.031.i
  br label %decode_tag_internal.exit.thread

decode_tag_internal.exit.thread:                  ; preds = %.preheader.i, %13, %.thread49.i, %3, %decode_int64_internal.exit, %25, %22, %decode_tag_internal.exit
  %.0 = phi i32 [ -1, %decode_tag_internal.exit ], [ -1, %22 ], [ -1, %25 ], [ %spec.select, %decode_int64_internal.exit ], [ -1, %3 ], [ -1, %.thread49.i ], [ -1, %13 ], [ -1, %.preheader.i ]
  call void @llvm.lifetime.end.p0(i64 4, ptr nonnull %4) #7
  ret i32 %.0
}